; Function Attrs: mustprogress uwtable
define noundef zeroext i1 @_ZN2cv17CascadeClassifier7convertERKNSt7__cxx1112basic_stringIcSt11char_traitsIcESaIcEEES8_(ptr noundef nonnull align 8 dereferenceable(32) %0, ptr noundef nonnull align 8 dereferenceable(32) %1) local_unnamed_addr #0 align 2 personality ptr @__gxx_personality_v0 {
  %3 = alloca %"class.cv::FileStorage", align 8
  %4 = alloca %"class.std::__cxx11::basic_string", align 8
  %5 = alloca %"class.cv::FileStorage", align 8
  %6 = alloca %"class.std::__cxx11::basic_string", align 8
  %7 = alloca %"class.cv::FileNode", align 8
  call void @_ZNSt7__cxx1112basic_stringIcSt11char_traitsIcESaIcEEC1Ev(ptr noundef nonnull align 8 dereferenceable(32) %4) #16
  invoke void @_ZN2cv11FileStorageC1ERKNSt7__cxx1112basic_stringIcSt11char_traitsIcESaIcEEEiS8_(ptr noundef nonnull align 8 dereferenceable(64) %3, ptr noundef nonnull align 8 dereferenceable(32) %0, i32 noundef 0, ptr noundef nonnull align 8 dereferenceable(32) %4)
          to label %8 unwind label %15

8:                                                ; preds = %2
  call void @_ZNSt7__cxx1112basic_stringIcSt11char_traitsIcESaIcEED1Ev(ptr noundef nonnull align 8 dereferenceable(32) %4) #16
  call void @_ZNSt7__cxx1112basic_stringIcSt11char_traitsIcESaIcEEC1Ev(ptr noundef nonnull align 8 dereferenceable(32) %6) #16
  invoke void @_ZN2cv11FileStorageC1ERKNSt7__cxx1112basic_stringIcSt11char_traitsIcESaIcEEEiS8_(ptr noundef nonnull align 8 dereferenceable(64) %5, ptr noundef nonnull align 8 dereferenceable(32) %1, i32 noundef 1, ptr noundef nonnull align 8 dereferenceable(32) %6)
          to label %9 unwind label %17

9:                                                ; preds = %8
  call void @_ZNSt7__cxx1112basic_stringIcSt11char_traitsIcESaIcEED1Ev(ptr noundef nonnull align 8 dereferenceable(32) %6) #16
  %10 = invoke noundef zeroext i1 @_ZNK2cv11FileStorage8isOpenedEv(ptr noundef nonnull align 8 dereferenceable(64) %3)
          to label %11 unwind label %19

11:                                               ; preds = %9
  br i1 %10, label %12, label %30

12:                                               ; preds = %11
  %13 = invoke noundef zeroext i1 @_ZNK2cv11FileStorage8isOpenedEv(ptr noundef nonnull align 8 dereferenceable(64) %5)
          to label %14 unwind label %19

14:                                               ; preds = %12
  br i1 %13, label %21, label %30

15:                                               ; preds = %2
  %16 = landingpad { ptr, i32 }
          cleanup
  call void @_ZNSt7__cxx1112basic_stringIcSt11char_traitsIcESaIcEED1Ev(ptr noundef nonnull align 8 dereferenceable(32) %4) #16
  br label %32

17:                                               ; preds = %8
  %18 = landingpad { ptr, i32 }
          cleanup
  call void @_ZNSt7__cxx1112basic_stringIcSt11char_traitsIcESaIcEED1Ev(ptr noundef nonnull align 8 dereferenceable(32) %6) #16
  br label %31

19:                                               ; preds = %22, %21, %12, %9
  %20 = landingpad { ptr, i32 }
          cleanup
  call void @_ZN2cv11FileStorageD1Ev(ptr noundef nonnull align 8 dereferenceable(64) %5) #16
  br label %31

21:                                               ; preds = %14
  invoke void @_ZNK2cv11FileStorage20getFirstTopLevelNodeEv(ptr dead_on_unwind nonnull writable sret(%"class.cv::FileNode") align 8 %7, ptr noundef nonnull align 8 dereferenceable(64) %3)
          to label %22 unwind label %19

22:                                               ; preds = %21
  %23 = invoke noundef zeroext i1 @_ZN2cv8haar_cvt7convertERKNS_8FileNodeERNS_11FileStorageE(ptr noundef nonnull align 8 dereferenceable(24) %7, ptr noundef nonnull align 8 dereferenceable(64) %5)
          to label %24 unwind label %19

24:                                               ; preds = %22
  br i1 %23, label %30, label %25

25:                                               ; preds = %24
  %26 = call noundef i64 @_ZNKSt7__cxx1112basic_stringIcSt11char_traitsIcESaIcEE4sizeEv(ptr noundef nonnull align 8 dereferenceable(32) %1) #16
  %.not = icmp eq i64 %26, 0
  br i1 %.not, label %30, label %27

27:                                               ; preds = %25
  %28 = call noundef ptr @_ZNKSt7__cxx1112basic_stringIcSt11char_traitsIcESaIcEE5c_strEv(ptr noundef nonnull align 8 dereferenceable(32) %1) #16
  %29 = call i32 @remove(ptr noundef %28) #16
  br label %30

30:                                               ; preds = %24, %25, %27, %11, %14
  %.0 = phi i1 [ false, %14 ], [ false, %11 ], [ false, %27 ], [ false, %25 ], [ true, %24 ]
  call void @_ZN2cv11FileStorageD1Ev(ptr noundef nonnull align 8 dereferenceable(64) %5) #16
  call void @_ZN2cv11FileStorageD1Ev(ptr noundef nonnull align 8 dereferenceable(64) %3) #16
  ret i1 %.0

31:                                               ; preds = %19, %17
  %.pn = phi { ptr, i32 } [ %20, %19 ], [ %18, %17 ]
  call void @_ZN2cv11FileStorageD1Ev(ptr noundef nonnull align 8 dereferenceable(64) %3) #16
  br label %32

32:                                               ; preds = %31, %15
  %.pn.pn = phi { ptr, i32 } [ %.pn, %31 ], [ %16, %15 ]
  resume { ptr, i32 } %.pn.pn
}